; Function Attrs: nounwind uwtable
define internal range(i32 0, 3) i32 @db_getupvalue(ptr noundef %0) #0 {
  %2 = tail call i64 @luaL_checkinteger(ptr noundef %0, i32 noundef 2) #8
  %3 = trunc i64 %2 to i32
  tail call void @luaL_checktype(ptr noundef %0, i32 noundef 1, i32 noundef 6) #8
  %4 = tail call ptr @lua_getupvalue(ptr noundef %0, i32 noundef 1, i32 noundef %3) #8
  %5 = icmp eq ptr %4, null
  br i1 %5, label %auxupvalue.exit, label %6

6:                                                ; preds = %1
  %7 = tail call ptr @lua_pushstring(ptr noundef %0, ptr noundef nonnull %4) #8
  tail call void @lua_rotate(ptr noundef %0, i32 noundef -2, i32 noundef 1) #8
  br label %auxupvalue.exit

auxupvalue.exit:                                  ; preds = %1, %6
  %.0.i = phi i32 [ 2, %6 ], [ 0, %1 ]
  ret i32 %.0.i
}